; Function Attrs: cold nounwind optsize uwtable
define internal noundef i32 @tgv_decode_end(ptr noundef readonly captures(none) %0) #0 {
  %2 = getelementptr inbounds nuw i8, ptr %0, i64 32
  %3 = load ptr, ptr %2, align 8, !tbaa !4
  %4 = getelementptr inbounds nuw i8, ptr %3, i64 8
  tail call void @av_frame_free(ptr noundef nonnull %4) #6
  %5 = getelementptr inbounds nuw i8, ptr %3, i64 16
  tail call void @av_freep(ptr noundef nonnull %5) #6
  %6 = getelementptr inbounds nuw i8, ptr %3, i64 1056
  tail call void @av_freep(ptr noundef nonnull %6) #6
  %7 = getelementptr inbounds nuw i8, ptr %3, i64 1064
  tail call void @av_freep(ptr noundef nonnull %7) #6
  ret i32 0
}